target datalayout = "e-m:e-p270:32:32-p271:32:32-p272:64:64-i64:64-i128:128-f80:128-n8:16:32:64-S128"
target triple = "x86_64-pc-linux-gnu"

; Function Attrs: inlinehint mustprogress nounwind uwtable
define linkonce_odr hidden void @_ZN4LIEF5MachO7details11pack_targetINS1_26dyld_chained_ptr_64_rebaseEEEvRT_m(ptr noundef nonnull align 8 dereferenceable(8) %0, i64 noundef %1) #2 comdat {
  %3 = alloca ptr, align 8
  %4 = alloca i64, align 8
  store ptr %0, ptr %3, align 8, !tbaa !27
  store i64 %1, ptr %4, align 8, !tbaa !13
  %5 = load i64, ptr %4, align 8, !tbaa !13
  %6 = lshr i64 %5, 56
  %7 = load ptr, ptr %3, align 8, !tbaa !27
  %8 = load i64, ptr %7, align 8
  %9 = and i64 %6, 255
  %10 = shl i64 %9, 36
  %11 = and i64 %8, -17523466567681
  %12 = or i64 %11, %10
  store i64 %12, ptr %7, align 8
  %13 = load i64, ptr %4, align 8, !tbaa !13
  %14 = and i64 %13, 8796093022207
  %15 = load ptr, ptr %3, align 8, !tbaa !27
  %16 = load i64, ptr %15, align 8
  %17 = and i64 %14, 68719476735
  %18 = and i64 %16, -68719476736
  %19 = or i64 %18, %17
  store i64 %19, ptr %15, align 8
  ret void
}

; Function Attrs: mustprogress nounwind uwtable
define hidden void @_ZN4LIEF5MachO7details26dyld_chained_ptr_generic6411pack_targetEm(ptr noundef nonnull align 8 dereferenceable(8) %0, i64 noundef %1) #1 align 2 {
  %3 = alloca ptr, align 8
  %4 = alloca i64, align 8
  store ptr %0, ptr %3, align 8, !tbaa !25
  store i64 %1, ptr %4, align 8, !tbaa !13
  %5 = load ptr, ptr %3, align 8
  %6 = load i64, ptr %4, align 8, !tbaa !13
  call void @_ZN4LIEF5MachO7details11pack_targetINS1_26dyld_chained_ptr_64_rebaseEEEvRT_m(ptr noundef nonnull align 8 dereferenceable(8) %5, i64 noundef %6)
  ret void
}