; Function Attrs: mustprogress nofree norecurse nosync nounwind willreturn memory(argmem: readwrite) uwtable
define hidden void @_ZN4LIEF5MachO7details26dyld_chained_ptr_generic6411pack_targetEm(ptr noundef nonnull align 8 captures(none) dereferenceable(8) %0, i64 noundef %1) local_unnamed_addr #2 align 2 {
  %3 = load i64, ptr %0, align 8
  %4 = lshr i64 %1, 20
  %5 = and i64 %3, -17592186044416
  %6 = and i64 %1, 68719476735
  %.masked.i = and i64 %4, 17523466567680
  %7 = or disjoint i64 %.masked.i, %6
  %8 = or disjoint i64 %7, %5
  store i64 %8, ptr %0, align 8
  ret void
}